target datalayout = "e-m:e-p270:32:32-p271:32:32-p272:64:64-i64:64-i128:128-f80:128-n8:16:32:64-S128"
target triple = "x86_64-pc-linux-gnu"

%struct.WildcardData = type { ptr, ptr, %struct.Curl_llist, ptr, ptr, i8 }
%struct.Curl_llist = type { ptr, ptr, ptr, i64 }

@Curl_cfree = external global ptr, align 8

; Function Attrs: nounwind uwtable
define dso_local void @Curl_wildcard_dtor(ptr noundef %0) #0 {
  %2 = alloca ptr, align 8
  %3 = alloca ptr, align 8
  %4 = alloca i32, align 4
  store ptr %0, ptr %2, align 8, !tbaa !17
  call void @llvm.lifetime.start.p0(i64 8, ptr %3) #5
  %5 = load ptr, ptr %2, align 8, !tbaa !17
  %6 = load ptr, ptr %5, align 8, !tbaa !4
  store ptr %6, ptr %3, align 8, !tbaa !4
  %7 = load ptr, ptr %3, align 8, !tbaa !4
  %8 = icmp ne ptr %7, null
  br i1 %8, label %10, label %9

9:                                                ; preds = %1
  store i32 1, ptr %4, align 4
  br label %49

10:                                               ; preds = %1
  %11 = load ptr, ptr %3, align 8, !tbaa !4
  %12 = getelementptr inbounds nuw %struct.WildcardData, ptr %11, i32 0, i32 4
  %13 = load ptr, ptr %12, align 8, !tbaa !19
  %14 = icmp ne ptr %13, null
  br i1 %14, label %15, label %26

15:                                               ; preds = %10
  %16 = load ptr, ptr %3, align 8, !tbaa !4
  %17 = getelementptr inbounds nuw %struct.WildcardData, ptr %16, i32 0, i32 4
  %18 = load ptr, ptr %17, align 8, !tbaa !19
  %19 = load ptr, ptr %3, align 8, !tbaa !4
  %20 = getelementptr inbounds nuw %struct.WildcardData, ptr %19, i32 0, i32 3
  %21 = load ptr, ptr %20, align 8, !tbaa !20
  call void %18(ptr noundef %21)
  %22 = load ptr, ptr %3, align 8, !tbaa !4
  %23 = getelementptr inbounds nuw %struct.WildcardData, ptr %22, i32 0, i32 4
  store ptr null, ptr %23, align 8, !tbaa !19
  %24 = load ptr, ptr %3, align 8, !tbaa !4
  %25 = getelementptr inbounds nuw %struct.WildcardData, ptr %24, i32 0, i32 3
  store ptr null, ptr %25, align 8, !tbaa !20
  br label %26

26:                                               ; preds = %15, %10
  br label %27

27:                                               ; preds = %26
  br label %28

28:                                               ; preds = %27
  br label %29

29:                                               ; preds = %28
  %30 = load ptr, ptr %3, align 8, !tbaa !4
  %31 = getelementptr inbounds nuw %struct.WildcardData, ptr %30, i32 0, i32 2
  call void @Curl_llist_destroy(ptr noundef %31, ptr noundef null)
  %32 = load ptr, ptr @Curl_cfree, align 8, !tbaa !16
  %33 = load ptr, ptr %3, align 8, !tbaa !4
  %34 = getelementptr inbounds nuw %struct.WildcardData, ptr %33, i32 0, i32 0
  %35 = load ptr, ptr %34, align 8, !tbaa !21
  call void %32(ptr noundef %35)
  %36 = load ptr, ptr %3, align 8, !tbaa !4
  %37 = getelementptr inbounds nuw %struct.WildcardData, ptr %36, i32 0, i32 0
  store ptr null, ptr %37, align 8, !tbaa !21
  %38 = load ptr, ptr @Curl_cfree, align 8, !tbaa !16
  %39 = load ptr, ptr %3, align 8, !tbaa !4
  %40 = getelementptr inbounds nuw %struct.WildcardData, ptr %39, i32 0, i32 1
  %41 = load ptr, ptr %40, align 8, !tbaa !22
  call void %38(ptr noundef %41)
  %42 = load ptr, ptr %3, align 8, !tbaa !4
  %43 = getelementptr inbounds nuw %struct.WildcardData, ptr %42, i32 0, i32 1
  store ptr null, ptr %43, align 8, !tbaa !22
  %44 = load ptr, ptr %3, align 8, !tbaa !4
  %45 = getelementptr inbounds nuw %struct.WildcardData, ptr %44, i32 0, i32 5
  store i8 1, ptr %45, align 8, !tbaa !9
  %46 = load ptr, ptr @Curl_cfree, align 8, !tbaa !16
  %47 = load ptr, ptr %3, align 8, !tbaa !4
  call void %46(ptr noundef %47)
  %48 = load ptr, ptr %2, align 8, !tbaa !17
  store ptr null, ptr %48, align 8, !tbaa !4
  store i32 0, ptr %4, align 4
  br label %49

49:                                               ; preds = %29, %9
  call void @llvm.lifetime.end.p0(i64 8, ptr %3) #5
  %50 = load i32, ptr %4, align 4
  switch i32 %50, label %52 [
    i32 0, label %51
    i32 1, label %51
  ]

51:                                               ; preds = %49, %49
  ret void

52:                                               ; preds = %49
  unreachable
}